Certificate:
    Data:
        Version: 1 (0x0)
        Serial Number: 0 (0x0)
        Signature Algorithm: dsa_with_SHA256
        Issuer: C=IT, ST=Italy, L=Salerno, O=UNISA, OU=DIEM, CN=DIEM
        Validity
            Not Before: Aug 24 14:43:05 2023 GMT
            Not After : Aug 23 14:43:05 2024 GMT
        Subject: C=IT, ST=Italy, L=Salerno, O=MedicalAuth, OU=MedicalAuth, CN=MA
        Subject Public Key Info:
            Public Key Algorithm: dsaEncryption
                Public-Key: (2048 bit)
                pub: 
                    53:bf:a4:f8:21:2f:cf:37:38:23:03:97:ea:cd:05:
                    ed:2d:f2:5a:e8:bb:6f:22:03:eb:9e:9e:06:1c:42:
                    f9:7d:8f:36:ce:42:67:4c:e1:64:05:a2:e0:8b:b6:
                    f6:02:e6:87:bf:17:61:0f:11:9d:c6:06:78:e4:4c:
                    54:31:88:7c:c7:f9:0d:29:2c:1d:ca:59:8f:12:ab:
                    68:f5:47:d3:c9:92:96:10:5d:01:22:40:b3:08:43:
                    59:11:84:ee:7a:db:fb:43:30:71:23:4d:2f:70:76:
                    67:4d:de:f5:b1:64:04:ab:a5:69:b4:63:01:af:8a:
                    65:cd:bc:34:1e:6f:d2:5f:d4:41:a5:50:10:77:22:
                    73:79:a7:22:d4:31:23:6b:f0:11:e6:b0:20:4f:87:
                    98:4f:e3:aa:4b:42:83:58:16:85:9f:6c:ba:2c:03:
                    a2:53:c2:17:25:eb:ab:73:6f:f3:48:41:d1:72:13:
                    cc:51:02:f7:2a:52:18:a6:70:db:a7:7e:8b:20:65:
                    19:a7:8e:dd:6b:15:ec:15:9b:72:8e:44:9d:28:b1:
                    a5:c8:18:5f:6f:92:d2:03:ad:78:56:75:b4:12:a0:
                    96:3a:83:9b:95:d4:55:7a:34:c2:ed:8d:c1:4a:30:
                    9a:cd:91:e2:6f:89:4e:ff:ad:11:d9:1e:09:e6:e4:
                    8d
                P:   
                    00:a3:bf:52:8a:94:d9:49:eb:6b:26:c7:3f:4e:5a:
                    74:29:ee:29:be:d7:5d:07:81:09:58:4e:bc:ec:70:
                    85:b2:5a:86:29:d2:67:1c:7a:4f:0d:64:3a:53:e7:
                    fe:1c:23:11:4b:b2:e5:5f:ba:b1:6c:74:b0:e6:dd:
                    75:da:73:a7:14:29:5f:e4:d6:59:35:c2:3b:08:2d:
                    01:bf:43:78:7d:16:c1:d2:54:8e:79:a5:59:a6:30:
                    88:81:3b:36:ac:49:1f:78:ed:77:90:5f:32:c2:46:
                    9f:b5:4b:91:42:86:b9:0f:5b:0e:9e:74:ee:5e:c1:
                    dd:4d:39:84:5f:ba:9e:df:f4:d2:73:62:dd:71:59:
                    06:4f:75:8a:d1:dd:f5:54:10:38:55:ff:bb:05:4f:
                    61:78:63:a8:3d:64:0a:02:96:a5:71:58:c4:87:e9:
                    f3:2f:50:d9:2c:b9:2b:8e:ff:97:99:9e:57:a9:7e:
                    7c:d4:00:5d:70:7e:66:32:3a:bd:29:f8:a7:21:64:
                    88:5f:f7:a9:f1:38:49:5b:a7:2b:85:e4:fa:f0:a2:
                    ef:cd:19:05:88:46:57:70:c2:0b:59:14:e5:0d:64:
                    68:8b:69:a3:69:df:7a:8c:9c:8d:c4:42:43:48:1b:
                    fc:5a:3b:bd:09:2b:0c:b2:30:74:27:16:aa:5a:14:
                    03:09
                Q:   
                    00:df:70:6c:63:8b:9f:fd:2c:80:13:db:a7:7e:a5:
                    e4:92:58:c1:b2:4f:1e:90:0a:60:c4:98:b4:2b
                G:   
                    52:26:f8:dc:0a:96:0b:a1:e3:33:78:83:10:ce:6c:
                    81:f6:8e:0b:28:3b:4d:7d:c2:52:e8:4f:14:44:49:
                    00:a6:ea:a7:d9:49:f4:c6:22:c0:1f:30:70:b8:4f:
                    44:bd:51:3f:82:f2:c4:36:40:39:50:c9:44:fd:5f:
                    be:b4:30:b3:e2:91:0d:ec:46:b2:aa:6c:68:f0:2f:
                    29:32:5d:cc:26:ea:4f:c2:1c:4c:70:89:0b:11:be:
                    23:26:1d:fa:c6:be:45:17:f2:ca:5f:3e:22:be:6a:
                    fb:1f:2e:90:06:40:7a:4a:46:42:ed:ff:aa:c6:88:
                    b1:4b:2a:41:f4:8d:fe:12:41:ff:dd:e9:1c:e9:7d:
                    40:77:e5:0e:90:18:03:5f:56:aa:ba:e3:89:9b:00:
                    23:0e:8d:97:5d:7f:e2:f3:6c:24:9e:53:91:1e:0c:
                    35:50:84:4b:03:f2:ec:8f:25:58:a9:26:7e:b8:47:
                    09:44:be:9c:c2:1c:39:6a:bd:e4:9e:1b:66:84:2b:
                    6a:06:0f:b7:9f:74:74:ad:3f:19:20:a8:6f:33:eb:
                    a7:1d:ee:aa:be:67:3e:1d:70:6b:af:f3:1f:1f:cb:
                    01:87:5f:72:79:d6:87:ca:a3:46:bf:2c:15:f3:2f:
                    3e:b7:f3:fd:83:9f:e8:f2:0f:29:f4:3b:10:d3:d2:
                    e3
    Signature Algorithm: dsa_with_SHA256
    Signature Value:
        r:   
            00:bb:d7:c4:33:ec:f7:49:a1:19:2d:eb:ed:eb:a6:
            bd:19:48:6c:45:d0:b4:df:4d:30:ae:29:bd:b4
        s:   
            00:94:b3:9e:bb:ff:f1:31:1c:cf:c9:80:dc:6c:dc:
            c0:b1:91:b6:6b:b3:9b:e1:37:6c:1d:eb:b1:bb
-----BEGIN CERTIFICATE-----
MIIEkzCCBD8CAQAwCwYJYIZIAWUDBAMCMF0xCzAJBgNVBAYTAklUMQ4wDAYDVQQI
DAVJdGFseTEQMA4GA1UEBwwHU2FsZXJubzEOMAwGA1UECgwFVU5JU0ExDTALBgNV
BAsMBERJRU0xDTALBgNVBAMMBERJRU0wHhcNMjMwODI0MTQ0MzA1WhcNMjQwODIz
MTQ0MzA1WjBoMQswCQYDVQQGEwJJVDEOMAwGA1UECAwFSXRhbHkxEDAOBgNVBAcM
B1NhbGVybm8xFDASBgNVBAoMC01lZGljYWxBdXRoMRQwEgYDVQQLDAtNZWRpY2Fs
QXV0aDELMAkGA1UEAwwCTUEwggNCMIICNQYHKoZIzjgEATCCAigCggEBAKO/UoqU
2UnraybHP05adCnuKb7XXQeBCVhOvOxwhbJahinSZxx6Tw1kOlPn/hwjEUuy5V+6
sWx0sObdddpzpxQpX+TWWTXCOwgtAb9DeH0WwdJUjnmlWaYwiIE7NqxJH3jtd5Bf
MsJGn7VLkUKGuQ9bDp507l7B3U05hF+6nt/00nNi3XFZBk91itHd9VQQOFX/uwVP
YXhjqD1kCgKWpXFYxIfp8y9Q2Sy5K47/l5meV6l+fNQAXXB+ZjI6vSn4pyFkiF/3
qfE4SVunK4Xk+vCi780ZBYhGV3DCC1kU5Q1kaItpo2nfeoycjcRCQ0gb/Fo7vQkr
DLIwdCcWqloUAwkCHQDfcGxji5/9LIAT26d+peSSWMGyTx6QCmDEmLQrAoIBAFIm
+NwKlguh4zN4gxDObIH2jgsoO019wlLoTxRESQCm6qfZSfTGIsAfMHC4T0S9UT+C
8sQ2QDlQyUT9X760MLPikQ3sRrKqbGjwLykyXcwm6k/CHExwiQsRviMmHfrGvkUX
8spfPiK+avsfLpAGQHpKRkLt/6rGiLFLKkH0jf4SQf/d6RzpfUB35Q6QGANfVqq6
44mbACMOjZddf+LzbCSeU5EeDDVQhEsD8uyPJVipJn64RwlEvpzCHDlqveSeG2aE
K2oGD7efdHStPxkgqG8z66cd7qq+Zz4dcGuv8x8fywGHX3J51ofKo0a/LBXzLz63
8/2Dn+jyDyn0OxDT0uMDggEFAAKCAQBTv6T4IS/PNzgjA5fqzQXtLfJa6LtvIgPr
np4GHEL5fY82zkJnTOFkBaLgi7b2AuaHvxdhDxGdxgZ45ExUMYh8x/kNKSwdylmP
Eqto9UfTyZKWEF0BIkCzCENZEYTuetv7QzBxI00vcHZnTd71sWQEq6VptGMBr4pl
zbw0Hm/SX9RBpVAQdyJzeaci1DEja/AR5rAgT4eYT+OqS0KDWBaFn2y6LAOiU8IX
Jeurc2/zSEHRchPMUQL3KlIYpnDbp36LIGUZp47daxXsFZtyjkSdKLGlyBhfb5LS
A614VnW0EqCWOoObldRVejTC7Y3BSjCazZHib4lO/60R2R4J5uSNMAsGCWCGSAFl
AwQDAgNBADA+Ah0Au9fEM+z3SaEZLevt66a9GUhsRdC0300wrim9tAIdAJSznrv/
8TEcz8mA3GzcwLGRtmuzm+E3bB3rsbs=
-----END CERTIFICATE-----
