Certificate:
    Data:
        Version: 1 (0x0)
        Serial Number: 1 (0x1)
        Signature Algorithm: dsa_with_SHA256
        Issuer: C=IT, ST=Italy, L=Salerno, O=UNISA, OU=DIEM, CN=DIEM
        Validity
            Not Before: Aug 24 16:32:54 2023 GMT
            Not After : Aug 23 16:32:54 2024 GMT
        Subject: C=IT, ST=Italy, L=Salerno, O=SalaBingo, OU=SalaBingo, CN=SalaBingo
        Subject Public Key Info:
            Public Key Algorithm: dsaEncryption
                Public-Key: (2048 bit)
                pub: 
                    00:98:5e:9a:5f:0f:73:84:d1:f6:77:77:f2:a3:db:
                    e9:27:e9:32:4b:97:4d:d3:f3:29:34:cb:68:0b:f6:
                    ad:40:3f:74:54:85:15:c5:64:b9:41:19:6d:41:bd:
                    1d:be:5e:33:21:8d:0b:32:fd:29:4b:ad:b1:b9:37:
                    25:6e:95:c6:4f:cb:28:37:bf:f1:59:4d:0c:bb:77:
                    9a:b1:3a:e0:5e:c1:d8:a9:7f:e5:92:80:51:15:b4:
                    a0:ec:a1:9a:40:5c:3a:75:eb:25:68:f6:af:ef:ff:
                    90:8a:25:ad:d6:46:ae:b2:90:fc:85:ca:86:6d:72:
                    e0:7b:f3:31:64:b8:de:cb:67:b4:c5:fb:31:08:f5:
                    b3:c9:12:64:99:b7:13:c1:69:ec:b9:01:4a:3a:0c:
                    86:08:6b:25:7c:bf:8a:1a:93:75:d6:ec:62:88:3a:
                    04:82:38:d5:a8:36:3f:6a:30:be:6c:b2:32:90:54:
                    38:4c:70:31:2f:cd:d0:4f:66:25:8d:66:60:5c:f1:
                    a2:8d:5f:9d:99:b4:df:84:13:fd:07:00:50:f6:fb:
                    10:1d:c6:86:bf:fa:5a:4f:d0:c5:8e:38:59:c6:17:
                    57:23:37:c5:1e:c0:9a:92:0f:81:51:f1:e9:9f:f8:
                    b9:7c:76:ea:41:a7:72:cc:2c:ec:37:5d:1e:6f:ce:
                    dc:33
                P:   
                    00:cc:76:d8:8d:bf:a9:b8:08:60:5f:7a:0e:42:b3:
                    2c:6b:c7:fb:d3:a4:60:f6:5f:e1:6c:0d:d2:d8:31:
                    24:44:85:8f:3b:45:19:18:dd:2b:92:1a:04:8d:96:
                    f9:82:dd:fb:bd:1c:46:08:c0:7c:9c:50:31:e5:02:
                    16:ee:28:39:bc:00:84:5e:6d:bc:74:4e:21:25:58:
                    a9:25:de:77:67:3c:2a:7d:8d:44:94:1d:11:c4:4e:
                    83:e2:11:76:0e:54:23:a5:81:59:da:1f:dd:85:29:
                    29:09:46:7b:b5:53:ff:f9:c7:d9:1a:a8:e1:1f:5f:
                    47:08:d5:9f:a5:90:c9:94:cf:b4:5a:eb:35:92:4a:
                    9a:85:3b:37:e6:8c:c5:7f:40:de:ca:22:71:49:4d:
                    58:8b:5e:0a:e5:a1:2e:70:55:1d:8e:a8:90:0c:f5:
                    29:7c:8d:03:80:7b:bd:61:9a:e2:d3:30:f0:40:e9:
                    a9:46:7a:bb:d8:00:03:65:80:30:1f:05:f9:b5:dd:
                    df:2e:35:cb:ea:1c:b0:2d:63:09:ce:a5:a4:47:aa:
                    f9:a2:03:8b:45:62:75:66:46:19:c5:41:14:7f:29:
                    77:24:5d:04:c7:4a:c2:a1:f5:06:58:82:5a:5c:0d:
                    78:0d:7a:f6:af:32:37:6d:09:b3:e1:7a:94:b8:83:
                    21:fb
                Q:   
                    00:d1:4b:18:7e:d1:fe:79:dc:36:47:67:09:01:38:
                    5a:2a:6e:36:d3:d0:73:bb:58:2e:8b:6e:20:61
                G:   
                    0b:5c:f4:9b:97:8d:c5:91:3c:51:fc:81:d4:d7:a6:
                    7e:00:f7:82:4a:67:34:7f:4f:67:2e:49:64:e7:eb:
                    96:73:ec:b2:12:d4:c2:ba:68:5a:19:39:21:3c:a0:
                    60:e0:16:ed:20:17:01:ab:75:06:c9:45:ca:e0:20:
                    3b:1e:22:64:c6:17:fa:c2:f2:6a:91:b9:79:a7:d9:
                    ae:47:6b:6b:92:90:4a:85:10:7d:75:22:70:0f:9e:
                    16:30:e0:ac:c3:51:01:90:30:10:a5:cc:f4:a2:83:
                    09:9d:60:4d:f4:44:07:73:43:4b:32:6a:4a:de:cb:
                    30:d7:43:ef:02:d8:b7:ec:7f:12:61:fe:88:f0:55:
                    d0:18:a0:07:00:39:42:82:b9:1b:0d:e0:ee:67:77:
                    db:47:c2:29:bd:b1:3a:14:54:2a:c5:c8:2e:4b:ee:
                    01:4b:ff:c3:47:92:30:f7:00:bf:f3:f9:82:3f:4e:
                    8e:69:fb:17:c2:bd:a5:4c:13:f7:8d:82:9e:f0:ad:
                    c4:07:a0:68:6b:7c:bd:1e:b5:a1:fe:a6:9a:ac:70:
                    6b:df:de:f4:48:b0:c6:d9:f9:e5:58:f9:3b:fc:ad:
                    df:65:12:b4:9b:ea:c2:5d:81:f1:66:e6:25:00:55:
                    c2:dc:11:17:47:57:bf:1c:2a:c8:b3:53:0a:9c:b6:
                    4c
    Signature Algorithm: dsa_with_SHA256
    Signature Value:
        r:   
            41:e9:c3:25:82:a6:03:e1:d2:5b:41:91:d8:10:f5:
            11:c0:6c:e1:a6:61:48:e4:f5:1f:ae:42:de
        s:   
            15:1d:24:a9:39:1b:e7:79:45:e3:48:f8:db:bc:6c:
            e1:e1:14:fc:4f:84:a0:12:8e:dd:f9:88:e9
-----BEGIN CERTIFICATE-----
MIIElTCCBEMCAQEwCwYJYIZIAWUDBAMCMF0xCzAJBgNVBAYTAklUMQ4wDAYDVQQI
DAVJdGFseTEQMA4GA1UEBwwHU2FsZXJubzEOMAwGA1UECgwFVU5JU0ExDTALBgNV
BAsMBERJRU0xDTALBgNVBAMMBERJRU0wHhcNMjMwODI0MTYzMjU0WhcNMjQwODIz
MTYzMjU0WjBrMQswCQYDVQQGEwJJVDEOMAwGA1UECAwFSXRhbHkxEDAOBgNVBAcM
B1NhbGVybm8xEjAQBgNVBAoMCVNhbGFCaW5nbzESMBAGA1UECwwJU2FsYUJpbmdv
MRIwEAYDVQQDDAlTYWxhQmluZ28wggNDMIICNQYHKoZIzjgEATCCAigCggEBAMx2
2I2/qbgIYF96DkKzLGvH+9OkYPZf4WwN0tgxJESFjztFGRjdK5IaBI2W+YLd+70c
RgjAfJxQMeUCFu4oObwAhF5tvHROISVYqSXed2c8Kn2NRJQdEcROg+IRdg5UI6WB
Wdof3YUpKQlGe7VT//nH2Rqo4R9fRwjVn6WQyZTPtFrrNZJKmoU7N+aMxX9A3soi
cUlNWIteCuWhLnBVHY6okAz1KXyNA4B7vWGa4tMw8EDpqUZ6u9gAA2WAMB8F+bXd
3y41y+ocsC1jCc6lpEeq+aIDi0VidWZGGcVBFH8pdyRdBMdKwqH1BliCWlwNeA16
9q8yN20Js+F6lLiDIfsCHQDRSxh+0f553DZHZwkBOFoqbjbT0HO7WC6LbiBhAoIB
AAtc9JuXjcWRPFH8gdTXpn4A94JKZzR/T2cuSWTn65Zz7LIS1MK6aFoZOSE8oGDg
Fu0gFwGrdQbJRcrgIDseImTGF/rC8mqRuXmn2a5Ha2uSkEqFEH11InAPnhYw4KzD
UQGQMBClzPSigwmdYE30RAdzQ0syakreyzDXQ+8C2LfsfxJh/ojwVdAYoAcAOUKC
uRsN4O5nd9tHwim9sToUVCrFyC5L7gFL/8NHkjD3AL/z+YI/To5p+xfCvaVME/eN
gp7wrcQHoGhrfL0etaH+ppqscGvf3vRIsMbZ+eVY+Tv8rd9lErSb6sJdgfFm5iUA
VcLcERdHV78cKsizUwqctkwDggEGAAKCAQEAmF6aXw9zhNH2d3fyo9vpJ+kyS5dN
0/MpNMtoC/atQD90VIUVxWS5QRltQb0dvl4zIY0LMv0pS62xuTclbpXGT8soN7/x
WU0Mu3easTrgXsHYqX/lkoBRFbSg7KGaQFw6deslaPav7/+QiiWt1kauspD8hcqG
bXLge/MxZLjey2e0xfsxCPWzyRJkmbcTwWnsuQFKOgyGCGslfL+KGpN11uxiiDoE
gjjVqDY/ajC+bLIykFQ4THAxL83QT2YljWZgXPGijV+dmbTfhBP9BwBQ9vsQHcaG
v/paT9DFjjhZxhdXIzfFHsCakg+BUfHpn/i5fHbqQadyzCzsN10eb87cMzALBglg
hkgBZQMEAwIDPwAwPAIcQenDJYKmA+HSW0GR2BD1EcBs4aZhSOT1H65C3gIcFR0k
qTkb53lF40j427xs4eEU/E+EoBKO3fmI6Q==
-----END CERTIFICATE-----
